; Function Attrs: mustprogress uwtable
define dso_local void @_ZN28btSoftMultiBodyDynamicsWorld9serializeEP12btSerializer(ptr noundef nonnull align 8 dereferenceable(1025) %0, ptr noundef %1) unnamed_addr #0 align 2 {
  %3 = load ptr, ptr %1, align 8, !tbaa !4
  %4 = getelementptr inbounds nuw i8, ptr %3, i64 64
  %5 = load ptr, ptr %4, align 8
  tail call void %5(ptr noundef nonnull align 8 dereferenceable(8) %1)
  tail call void @_ZN23btDiscreteDynamicsWorld26serializeDynamicsWorldInfoEP12btSerializer(ptr noundef nonnull align 8 dereferenceable(508) %0, ptr noundef nonnull %1)
  %6 = getelementptr inbounds nuw i8, ptr %0, i64 12
  %7 = load i32, ptr %6, align 4, !tbaa !245
  %8 = icmp sgt i32 %7, 0
  br i1 %8, label %.lr.ph.i, label %_ZN28btSoftMultiBodyDynamicsWorld19serializeSoftBodiesEP12btSerializer.exit

.lr.ph.i:                                         ; preds = %2
  %9 = getelementptr inbounds nuw i8, ptr %0, i64 24
  br label %10

10:                                               ; preds = %37, %.lr.ph.i
  %11 = phi i32 [ %7, %.lr.ph.i ], [ %38, %37 ]
  %indvars.iv.i = phi i64 [ 0, %.lr.ph.i ], [ %indvars.iv.next.i, %37 ]
  %12 = load ptr, ptr %9, align 8, !tbaa !246
  %13 = getelementptr inbounds nuw ptr, ptr %12, i64 %indvars.iv.i
  %14 = load ptr, ptr %13, align 8, !tbaa !247
  %15 = getelementptr inbounds nuw i8, ptr %14, i64 272
  %16 = load i32, ptr %15, align 8, !tbaa !211
  %17 = and i32 %16, 8
  %.not.i = icmp eq i32 %17, 0
  br i1 %.not.i, label %37, label %18

18:                                               ; preds = %10
  %19 = load ptr, ptr %14, align 8, !tbaa !4
  %20 = getelementptr inbounds nuw i8, ptr %19, i64 32
  %21 = load ptr, ptr %20, align 8
  %22 = tail call noundef i32 %21(ptr noundef nonnull align 8 dereferenceable(372) %14)
  %23 = sext i32 %22 to i64
  %24 = load ptr, ptr %1, align 8, !tbaa !4
  %25 = getelementptr inbounds nuw i8, ptr %24, i64 32
  %26 = load ptr, ptr %25, align 8
  %27 = tail call noundef ptr %26(ptr noundef nonnull align 8 dereferenceable(8) %1, i64 noundef %23, i32 noundef 1)
  %28 = getelementptr inbounds nuw i8, ptr %27, i64 8
  %29 = load ptr, ptr %28, align 8, !tbaa !248
  %30 = load ptr, ptr %14, align 8, !tbaa !4
  %31 = getelementptr inbounds nuw i8, ptr %30, i64 40
  %32 = load ptr, ptr %31, align 8
  %33 = tail call noundef ptr %32(ptr noundef nonnull align 8 dereferenceable(372) %14, ptr noundef %29, ptr noundef nonnull %1)
  %34 = load ptr, ptr %1, align 8, !tbaa !4
  %35 = getelementptr inbounds nuw i8, ptr %34, i64 40
  %36 = load ptr, ptr %35, align 8
  tail call void %36(ptr noundef nonnull align 8 dereferenceable(8) %1, ptr noundef %27, ptr noundef %33, i32 noundef 1497645651, ptr noundef nonnull %14)
  %.pre.i = load i32, ptr %6, align 4, !tbaa !245
  br label %37

37:                                               ; preds = %18, %10
  %38 = phi i32 [ %.pre.i, %18 ], [ %11, %10 ]
  %indvars.iv.next.i = add nuw nsw i64 %indvars.iv.i, 1
  %39 = sext i32 %38 to i64
  %40 = icmp slt i64 %indvars.iv.next.i, %39
  br i1 %40, label %10, label %_ZN28btSoftMultiBodyDynamicsWorld19serializeSoftBodiesEP12btSerializer.exit, !llvm.loop !250

_ZN28btSoftMultiBodyDynamicsWorld19serializeSoftBodiesEP12btSerializer.exit: ; preds = %37, %2
  %41 = load ptr, ptr %0, align 8, !tbaa !4
  %42 = getelementptr inbounds nuw i8, ptr %41, i64 384
  %43 = load ptr, ptr %42, align 8
  tail call void %43(ptr noundef nonnull align 8 dereferenceable(848) %0, ptr noundef nonnull %1)
  tail call void @_ZN23btDiscreteDynamicsWorld20serializeRigidBodiesEP12btSerializer(ptr noundef nonnull align 8 dereferenceable(508) %0, ptr noundef nonnull %1)
  tail call void @_ZN16btCollisionWorld25serializeCollisionObjectsEP12btSerializer(ptr noundef nonnull align 8 dereferenceable(121) %0, ptr noundef nonnull %1)
  tail call void @_ZN16btCollisionWorld25serializeContactManifoldsEP12btSerializer(ptr noundef nonnull align 8 dereferenceable(121) %0, ptr noundef nonnull %1)
  %44 = load ptr, ptr %1, align 8, !tbaa !4
  %45 = getelementptr inbounds nuw i8, ptr %44, i64 72
  %46 = load ptr, ptr %45, align 8
  tail call void %46(ptr noundef nonnull align 8 dereferenceable(8) %1)
  ret void
}